; ModuleID = 'source-C-CXX/11/304.cpp'
source_filename = "source-C-CXX/11/304.cpp"
target datalayout = "e-m:e-p270:32:32-p271:32:32-p272:64:64-i64:64-f80:128-n8:16:32:64-S128"
target triple = "x86_64-pc-linux-gnu"

%"class.std::ios_base::Init" = type { i8 }
%"class.std::basic_istream" = type { i32 (...)**, i64, %"class.std::basic_ios" }
%"class.std::basic_ios" = type { %"class.std::ios_base", %"class.std::basic_ostream"*, i8, i8, %"class.std::basic_streambuf"*, %"class.std::ctype"*, %"class.std::num_put"*, %"class.std::num_get"* }
%"class.std::ios_base" = type { i32 (...)**, i64, i64, i32, i32, i32, %"struct.std::ios_base::_Callback_list"*, %"struct.std::ios_base::_Words", [8 x %"struct.std::ios_base::_Words"], i32, %"struct.std::ios_base::_Words"*, %"class.std::locale" }
%"struct.std::ios_base::_Callback_list" = type { %"struct.std::ios_base::_Callback_list"*, void (i32, %"class.std::ios_base"*, i32)*, i32, i32 }
%"struct.std::ios_base::_Words" = type { i8*, i64 }
%"class.std::locale" = type { %"class.std::locale::_Impl"* }
%"class.std::locale::_Impl" = type { i32, %"class.std::locale::facet"**, i64, %"class.std::locale::facet"**, i8** }
%"class.std::locale::facet" = type <{ i32 (...)**, i32, [4 x i8] }>
%"class.std::basic_ostream" = type { i32 (...)**, %"class.std::basic_ios" }
%"class.std::basic_streambuf" = type { i32 (...)**, i8*, i8*, i8*, i8*, i8*, i8*, %"class.std::locale" }
%"class.std::ctype" = type <{ %"class.std::locale::facet.base", [4 x i8], %struct.__locale_struct*, i8, [7 x i8], i32*, i32*, i16*, i8, [256 x i8], [256 x i8], i8, [6 x i8] }>
%"class.std::locale::facet.base" = type <{ i32 (...)**, i32 }>
%struct.__locale_struct = type { [13 x %struct.__locale_data*], i16*, i32*, i32*, [13 x i8*] }
%struct.__locale_data = type opaque
%"class.std::num_put" = type { %"class.std::locale::facet.base", [4 x i8] }
%"class.std::num_get" = type { %"class.std::locale::facet.base", [4 x i8] }

@_ZStL8__ioinit = internal global %"class.std::ios_base::Init" zeroinitializer, align 1
@__dso_handle = external hidden global i8
@_ZSt3cin = external global %"class.std::basic_istream", align 8
@_ZSt4cout = external global %"class.std::basic_ostream", align 8
@llvm.global_ctors = appending global [1 x { i32, void ()*, i8* }] [{ i32, void ()*, i8* } { i32 65535, void ()* @_GLOBAL__sub_I_304.cpp, i8* null }]

declare void @_ZNSt8ios_base4InitC1Ev(%"class.std::ios_base::Init"* nonnull align 1 dereferenceable(1)) unnamed_addr #0

; Function Attrs: nounwind
declare void @_ZNSt8ios_base4InitD1Ev(%"class.std::ios_base::Init"* nonnull align 1 dereferenceable(1)) unnamed_addr #1

; Function Attrs: nofree nounwind
declare i32 @__cxa_atexit(void (i8*)*, i8*, i8*) local_unnamed_addr #2

; Function Attrs: mustprogress norecurse sspstrong uwtable
define dso_local i32 @main() local_unnamed_addr #3 {
  %1 = alloca [2000 x i32], align 16
  %2 = bitcast [2000 x i32]* %1 to i8*
  call void @llvm.lifetime.start.p0i8(i64 8000, i8* nonnull %2) #8
  br label %3

3:                                                ; preds = %9, %0
  %4 = phi i64 [ 1, %0 ], [ %10, %9 ]
  %5 = add nuw i64 %4, 1
  %6 = getelementptr inbounds [2000 x i32], [2000 x i32]* %1, i64 0, i64 %4
  %7 = call nonnull align 8 dereferenceable(16) %"class.std::basic_istream"* @_ZNSirsERi(%"class.std::basic_istream"* nonnull align 8 dereferenceable(16) @_ZSt3cin, i32* nonnull align 4 dereferenceable(4) %6)
  %8 = load i32, i32* %6, align 4, !tbaa !5
  switch i32 %8, label %9 [
    i32 0, label %12
    i32 -1, label %11
  ]

9:                                                ; preds = %3, %154
  %10 = phi i64 [ %5, %3 ], [ 1, %154 ]
  br label %3, !llvm.loop !9

11:                                               ; preds = %3
  call void @llvm.lifetime.end.p0i8(i64 8000, i8* nonnull %2) #8
  ret i32 0

12:                                               ; preds = %3
  %13 = trunc i64 %4 to i32
  %14 = icmp ugt i32 %13, 1
  br i1 %14, label %15, label %126

15:                                               ; preds = %12
  %16 = and i64 %4, 4294967295
  %17 = add nsw i64 %16, -1
  %18 = add nsw i64 %16, -9
  %19 = lshr i64 %18, 3
  %20 = add nuw nsw i64 %19, 1
  %21 = icmp ult i64 %17, 8
  %22 = and i64 %17, -8
  %23 = or i64 %22, 1
  %24 = and i64 %20, 1
  %25 = icmp ult i64 %18, 8
  %26 = and i64 %20, 4611686018427387902
  %27 = icmp eq i64 %24, 0
  %28 = icmp eq i64 %17, %22
  br label %29

29:                                               ; preds = %15, %111
  %30 = phi i64 [ 1, %15 ], [ %113, %111 ]
  %31 = phi i32 [ 0, %15 ], [ %112, %111 ]
  %32 = getelementptr inbounds [2000 x i32], [2000 x i32]* %1, i64 0, i64 %30
  %33 = load i32, i32* %32, align 4, !tbaa !5
  %34 = and i32 %33, 1
  %35 = icmp eq i32 %34, 0
  br i1 %35, label %36, label %111

36:                                               ; preds = %29
  br i1 %21, label %108, label %37

37:                                               ; preds = %36
  %38 = insertelement <4 x i32> <i32 poison, i32 0, i32 0, i32 0>, i32 %31, i32 0
  %39 = insertelement <4 x i32> poison, i32 %33, i32 0
  %40 = shufflevector <4 x i32> %39, <4 x i32> poison, <4 x i32> zeroinitializer
  %41 = insertelement <4 x i32> poison, i32 %33, i32 0
  %42 = shufflevector <4 x i32> %41, <4 x i32> poison, <4 x i32> zeroinitializer
  br i1 %25, label %81, label %43

43:                                               ; preds = %37, %43
  %44 = phi i64 [ %78, %43 ], [ 0, %37 ]
  %45 = phi <4 x i32> [ %76, %43 ], [ %38, %37 ]
  %46 = phi <4 x i32> [ %77, %43 ], [ zeroinitializer, %37 ]
  %47 = phi i64 [ %79, %43 ], [ %26, %37 ]
  %48 = or i64 %44, 1
  %49 = getelementptr inbounds [2000 x i32], [2000 x i32]* %1, i64 0, i64 %48
  %50 = bitcast i32* %49 to <4 x i32>*
  %51 = load <4 x i32>, <4 x i32>* %50, align 4, !tbaa !5
  %52 = getelementptr inbounds i32, i32* %49, i64 4
  %53 = bitcast i32* %52 to <4 x i32>*
  %54 = load <4 x i32>, <4 x i32>* %53, align 4, !tbaa !5
  %55 = shl nsw <4 x i32> %51, <i32 1, i32 1, i32 1, i32 1>
  %56 = shl nsw <4 x i32> %54, <i32 1, i32 1, i32 1, i32 1>
  %57 = icmp eq <4 x i32> %55, %40
  %58 = icmp eq <4 x i32> %56, %42
  %59 = zext <4 x i1> %57 to <4 x i32>
  %60 = zext <4 x i1> %58 to <4 x i32>
  %61 = add <4 x i32> %45, %59
  %62 = add <4 x i32> %46, %60
  %63 = or i64 %44, 9
  %64 = getelementptr inbounds [2000 x i32], [2000 x i32]* %1, i64 0, i64 %63
  %65 = bitcast i32* %64 to <4 x i32>*
  %66 = load <4 x i32>, <4 x i32>* %65, align 4, !tbaa !5
  %67 = getelementptr inbounds i32, i32* %64, i64 4
  %68 = bitcast i32* %67 to <4 x i32>*
  %69 = load <4 x i32>, <4 x i32>* %68, align 4, !tbaa !5
  %70 = shl nsw <4 x i32> %66, <i32 1, i32 1, i32 1, i32 1>
  %71 = shl nsw <4 x i32> %69, <i32 1, i32 1, i32 1, i32 1>
  %72 = icmp eq <4 x i32> %70, %40
  %73 = icmp eq <4 x i32> %71, %42
  %74 = zext <4 x i1> %72 to <4 x i32>
  %75 = zext <4 x i1> %73 to <4 x i32>
  %76 = add <4 x i32> %61, %74
  %77 = add <4 x i32> %62, %75
  %78 = add nuw i64 %44, 16
  %79 = add i64 %47, -2
  %80 = icmp eq i64 %79, 0
  br i1 %80, label %81, label %43, !llvm.loop !11

81:                                               ; preds = %43, %37
  %82 = phi <4 x i32> [ undef, %37 ], [ %76, %43 ]
  %83 = phi <4 x i32> [ undef, %37 ], [ %77, %43 ]
  %84 = phi i64 [ 0, %37 ], [ %78, %43 ]
  %85 = phi <4 x i32> [ %38, %37 ], [ %76, %43 ]
  %86 = phi <4 x i32> [ zeroinitializer, %37 ], [ %77, %43 ]
  br i1 %27, label %103, label %87

87:                                               ; preds = %81
  %88 = or i64 %84, 1
  %89 = getelementptr inbounds [2000 x i32], [2000 x i32]* %1, i64 0, i64 %88
  %90 = getelementptr inbounds i32, i32* %89, i64 4
  %91 = bitcast i32* %90 to <4 x i32>*
  %92 = load <4 x i32>, <4 x i32>* %91, align 4, !tbaa !5
  %93 = shl nsw <4 x i32> %92, <i32 1, i32 1, i32 1, i32 1>
  %94 = icmp eq <4 x i32> %93, %42
  %95 = zext <4 x i1> %94 to <4 x i32>
  %96 = add <4 x i32> %86, %95
  %97 = bitcast i32* %89 to <4 x i32>*
  %98 = load <4 x i32>, <4 x i32>* %97, align 4, !tbaa !5
  %99 = shl nsw <4 x i32> %98, <i32 1, i32 1, i32 1, i32 1>
  %100 = icmp eq <4 x i32> %99, %40
  %101 = zext <4 x i1> %100 to <4 x i32>
  %102 = add <4 x i32> %85, %101
  br label %103

103:                                              ; preds = %81, %87
  %104 = phi <4 x i32> [ %82, %81 ], [ %102, %87 ]
  %105 = phi <4 x i32> [ %83, %81 ], [ %96, %87 ]
  %106 = add <4 x i32> %105, %104
  %107 = call i32 @llvm.vector.reduce.add.v4i32(<4 x i32> %106)
  br i1 %28, label %111, label %108

108:                                              ; preds = %36, %103
  %109 = phi i64 [ 1, %36 ], [ %23, %103 ]
  %110 = phi i32 [ %31, %36 ], [ %107, %103 ]
  br label %115

111:                                              ; preds = %115, %103, %29
  %112 = phi i32 [ %31, %29 ], [ %107, %103 ], [ %123, %115 ]
  %113 = add nuw nsw i64 %30, 1
  %114 = icmp eq i64 %113, %16
  br i1 %114, label %126, label %29, !llvm.loop !13

115:                                              ; preds = %108, %115
  %116 = phi i64 [ %124, %115 ], [ %109, %108 ]
  %117 = phi i32 [ %123, %115 ], [ %110, %108 ]
  %118 = getelementptr inbounds [2000 x i32], [2000 x i32]* %1, i64 0, i64 %116
  %119 = load i32, i32* %118, align 4, !tbaa !5
  %120 = shl nsw i32 %119, 1
  %121 = icmp eq i32 %120, %33
  %122 = zext i1 %121 to i32
  %123 = add nsw i32 %117, %122
  %124 = add nuw nsw i64 %116, 1
  %125 = icmp eq i64 %124, %16
  br i1 %125, label %111, label %115, !llvm.loop !14

126:                                              ; preds = %111, %12
  %127 = phi i32 [ 0, %12 ], [ %112, %111 ]
  %128 = call nonnull align 8 dereferenceable(8) %"class.std::basic_ostream"* @_ZNSolsEi(%"class.std::basic_ostream"* nonnull align 8 dereferenceable(8) @_ZSt4cout, i32 %127)
  %129 = bitcast %"class.std::basic_ostream"* %128 to i8**
  %130 = load i8*, i8** %129, align 8, !tbaa !16
  %131 = getelementptr i8, i8* %130, i64 -24
  %132 = bitcast i8* %131 to i64*
  %133 = load i64, i64* %132, align 8
  %134 = bitcast %"class.std::basic_ostream"* %128 to i8*
  %135 = add nsw i64 %133, 240
  %136 = getelementptr inbounds i8, i8* %134, i64 %135
  %137 = bitcast i8* %136 to %"class.std::ctype"**
  %138 = load %"class.std::ctype"*, %"class.std::ctype"** %137, align 8, !tbaa !18
  %139 = icmp eq %"class.std::ctype"* %138, null
  br i1 %139, label %140, label %141

140:                                              ; preds = %126
  call void @_ZSt16__throw_bad_castv() #9
  unreachable

141:                                              ; preds = %126
  %142 = getelementptr inbounds %"class.std::ctype", %"class.std::ctype"* %138, i64 0, i32 8
  %143 = load i8, i8* %142, align 8, !tbaa !22
  %144 = icmp eq i8 %143, 0
  br i1 %144, label %148, label %145

145:                                              ; preds = %141
  %146 = getelementptr inbounds %"class.std::ctype", %"class.std::ctype"* %138, i64 0, i32 9, i64 10
  %147 = load i8, i8* %146, align 1, !tbaa !24
  br label %154

148:                                              ; preds = %141
  call void @_ZNKSt5ctypeIcE13_M_widen_initEv(%"class.std::ctype"* nonnull align 8 dereferenceable(570) %138)
  %149 = bitcast %"class.std::ctype"* %138 to i8 (%"class.std::ctype"*, i8)***
  %150 = load i8 (%"class.std::ctype"*, i8)**, i8 (%"class.std::ctype"*, i8)*** %149, align 8, !tbaa !16
  %151 = getelementptr inbounds i8 (%"class.std::ctype"*, i8)*, i8 (%"class.std::ctype"*, i8)** %150, i64 6
  %152 = load i8 (%"class.std::ctype"*, i8)*, i8 (%"class.std::ctype"*, i8)** %151, align 8
  %153 = call signext i8 %152(%"class.std::ctype"* nonnull align 8 dereferenceable(570) %138, i8 signext 10)
  br label %154

154:                                              ; preds = %145, %148
  %155 = phi i8 [ %147, %145 ], [ %153, %148 ]
  %156 = call nonnull align 8 dereferenceable(8) %"class.std::basic_ostream"* @_ZNSo3putEc(%"class.std::basic_ostream"* nonnull align 8 dereferenceable(8) %128, i8 signext %155)
  %157 = call nonnull align 8 dereferenceable(8) %"class.std::basic_ostream"* @_ZNSo5flushEv(%"class.std::basic_ostream"* nonnull align 8 dereferenceable(8) %156)
  br label %9
}

; Function Attrs: argmemonly mustprogress nofree nosync nounwind willreturn
declare void @llvm.lifetime.start.p0i8(i64 immarg, i8* nocapture) #4

declare nonnull align 8 dereferenceable(16) %"class.std::basic_istream"* @_ZNSirsERi(%"class.std::basic_istream"* nonnull align 8 dereferenceable(16), i32* nonnull align 4 dereferenceable(4)) local_unnamed_addr #0

declare nonnull align 8 dereferenceable(8) %"class.std::basic_ostream"* @_ZNSolsEi(%"class.std::basic_ostream"* nonnull align 8 dereferenceable(8), i32) local_unnamed_addr #0

; Function Attrs: argmemonly mustprogress nofree nosync nounwind willreturn
declare void @llvm.lifetime.end.p0i8(i64 immarg, i8* nocapture) #4

declare nonnull align 8 dereferenceable(8) %"class.std::basic_ostream"* @_ZNSo3putEc(%"class.std::basic_ostream"* nonnull align 8 dereferenceable(8), i8 signext) local_unnamed_addr #0

declare nonnull align 8 dereferenceable(8) %"class.std::basic_ostream"* @_ZNSo5flushEv(%"class.std::basic_ostream"* nonnull align 8 dereferenceable(8)) local_unnamed_addr #0

; Function Attrs: noreturn
declare void @_ZSt16__throw_bad_castv() local_unnamed_addr #5

declare void @_ZNKSt5ctypeIcE13_M_widen_initEv(%"class.std::ctype"* nonnull align 8 dereferenceable(570)) local_unnamed_addr #0

; Function Attrs: sspstrong uwtable
define internal void @_GLOBAL__sub_I_304.cpp() #6 section ".text.startup" {
  tail call void @_ZNSt8ios_base4InitC1Ev(%"class.std::ios_base::Init"* nonnull align 1 dereferenceable(1) @_ZStL8__ioinit)
  %1 = tail call i32 @__cxa_atexit(void (i8*)* bitcast (void (%"class.std::ios_base::Init"*)* @_ZNSt8ios_base4InitD1Ev to void (i8*)*), i8* getelementptr inbounds (%"class.std::ios_base::Init", %"class.std::ios_base::Init"* @_ZStL8__ioinit, i64 0, i32 0), i8* nonnull @__dso_handle) #8
  ret void
}

; Function Attrs: nofree nosync nounwind readnone willreturn
declare i32 @llvm.vector.reduce.add.v4i32(<4 x i32>) #7


!llvm.module.flags = !{!0, !1, !2, !3}
!llvm.ident = !{!4}

!0 = !{i32 1, !"wchar_size", i32 4}
!1 = !{i32 7, !"PIC Level", i32 2}
!2 = !{i32 7, !"PIE Level", i32 2}
!3 = !{i32 7, !"uwtable", i32 1}
!4 = !{!"clang version 13.0.0"}
!5 = !{!6, !6, i64 0}
!6 = !{!"int", !7, i64 0}
!7 = !{!"omnipotent char", !8, i64 0}
!8 = !{!"Simple C++ TBAA"}
!9 = distinct !{!9, !10}
!10 = !{!"llvm.loop.mustprogress"}
!11 = distinct !{!11, !10, !12}
!12 = !{!"llvm.loop.isvectorized", i32 1}
!13 = distinct !{!13, !10}
!14 = distinct !{!14, !10, !15, !12}
!15 = !{!"llvm.loop.unroll.runtime.disable"}
!16 = !{!17, !17, i64 0}
!17 = !{!"vtable pointer", !8, i64 0}
!18 = !{!19, !20, i64 240}
!19 = !{!"_ZTSSt9basic_iosIcSt11char_traitsIcEE", !20, i64 216, !7, i64 224, !21, i64 225, !20, i64 232, !20, i64 240, !20, i64 248, !20, i64 256}
!20 = !{!"any pointer", !7, i64 0}
!21 = !{!"bool", !7, i64 0}
!22 = !{!23, !7, i64 56}
!23 = !{!"_ZTSSt5ctypeIcE", !20, i64 16, !21, i64 24, !20, i64 32, !20, i64 40, !20, i64 48, !7, i64 56, !7, i64 57, !7, i64 313, !7, i64 569}
!24 = !{!7, !7, i64 0}
